target datalayout = "e-m:e-p270:32:32-p271:32:32-p272:64:64-i64:64-i128:128-f80:128-n8:16:32:64-S128"
target triple = "x86_64-pc-linux-gnu"

%"struct.std::ranges::__cust_access::_Data" = type { i8 }
%"struct.std::ranges::__cust_access::_Size" = type { i8 }
%"class.mold::Glob" = type { %"class.std::vector.1" }
%"class.std::vector.1" = type { %"struct.std::_Vector_base.2" }
%"struct.std::_Vector_base.2" = type { %"struct.std::_Vector_base<mold::Glob::Element, std::allocator<mold::Glob::Element>>::_Vector_impl" }
%"struct.std::_Vector_base<mold::Glob::Element, std::allocator<mold::Glob::Element>>::_Vector_impl" = type { %"struct.std::_Vector_base<mold::Glob::Element, std::allocator<mold::Glob::Element>>::_Vector_impl_data" }
%"struct.std::_Vector_base<mold::Glob::Element, std::allocator<mold::Glob::Element>>::_Vector_impl_data" = type { ptr, ptr, ptr }
%"class.std::basic_string_view" = type { i64, ptr }
%"class.std::span" = type { ptr, %"class.std::__detail::__extent_storage" }
%"class.std::__detail::__extent_storage" = type { i64 }

@_ZNSt6ranges6__cust4dataE = linkonce_odr dso_local constant %"struct.std::ranges::__cust_access::_Data" undef, comdat, align 1
@_ZNSt6ranges6__cust4sizeE = linkonce_odr dso_local constant %"struct.std::ranges::__cust_access::_Size" undef, comdat, align 1

; Function Attrs: mustprogress nounwind
define linkonce_odr dso_local noundef ptr @_ZSt12__to_addressIN4mold4Glob7ElementEEPT_S4_(ptr noundef %0) #4 comdat {
  %2 = alloca ptr, align 8
  store ptr %0, ptr %2, align 8, !tbaa !62
  %3 = load ptr, ptr %2, align 8, !tbaa !62
  ret ptr %3
}

; Function Attrs: mustprogress nounwind
define linkonce_odr dso_local noundef ptr @_ZNKSt6vectorIN4mold4Glob7ElementESaIS2_EE11_M_data_ptrIS2_EEPT_S7_(ptr noundef nonnull align 8 dereferenceable(24) %0, ptr noundef %1) #4 comdat align 2 {
  %3 = alloca ptr, align 8
  %4 = alloca ptr, align 8
  store ptr %0, ptr %3, align 8, !tbaa !37
  store ptr %1, ptr %4, align 8, !tbaa !62
  %5 = load ptr, ptr %4, align 8, !tbaa !62
  ret ptr %5
}

; Function Attrs: mustprogress nounwind
define linkonce_odr dso_local void @_ZNSt8__detail16__extent_storageILm18446744073709551615EEC2Em(ptr noundef nonnull align 8 dereferenceable(8) %0, i64 noundef %1) unnamed_addr #4 comdat align 2 {
  %3 = alloca ptr, align 8
  %4 = alloca i64, align 8
  store ptr %0, ptr %3, align 8, !tbaa !138
  store i64 %1, ptr %4, align 8, !tbaa !15
  %5 = load ptr, ptr %3, align 8
  %6 = getelementptr inbounds nuw %"class.std::__detail::__extent_storage", ptr %5, i32 0, i32 0
  %7 = load i64, ptr %4, align 8, !tbaa !15
  store i64 %7, ptr %6, align 8, !tbaa !140
  ret void
}

; Function Attrs: mustprogress nounwind
define linkonce_odr dso_local noundef ptr @_ZSt10to_addressIN4mold4Glob7ElementEEPT_S4_(ptr noundef %0) #4 comdat {
  %2 = alloca ptr, align 8
  store ptr %0, ptr %2, align 8, !tbaa !62
  %3 = load ptr, ptr %2, align 8, !tbaa !62
  %4 = call noundef ptr @_ZSt12__to_addressIN4mold4Glob7ElementEEPT_S4_(ptr noundef %3) #3
  ret ptr %4
}

; Function Attrs: mustprogress nounwind
define linkonce_odr dso_local noundef i64 @_ZNKSt6vectorIN4mold4Glob7ElementESaIS2_EE4sizeEv(ptr noundef nonnull align 8 dereferenceable(24) %0) #4 comdat align 2 {
  %2 = alloca ptr, align 8
  store ptr %0, ptr %2, align 8, !tbaa !37
  %3 = load ptr, ptr %2, align 8
  %4 = getelementptr inbounds nuw %"struct.std::_Vector_base.2", ptr %3, i32 0, i32 0
  %5 = getelementptr inbounds nuw %"struct.std::_Vector_base<mold::Glob::Element, std::allocator<mold::Glob::Element>>::_Vector_impl_data", ptr %4, i32 0, i32 1
  %6 = load ptr, ptr %5, align 8, !tbaa !45
  %7 = getelementptr inbounds nuw %"struct.std::_Vector_base.2", ptr %3, i32 0, i32 0
  %8 = getelementptr inbounds nuw %"struct.std::_Vector_base<mold::Glob::Element, std::allocator<mold::Glob::Element>>::_Vector_impl_data", ptr %7, i32 0, i32 0
  %9 = load ptr, ptr %8, align 8, !tbaa !61
  %10 = ptrtoint ptr %6 to i64
  %11 = ptrtoint ptr %9 to i64
  %12 = sub i64 %10, %11
  %13 = sdiv exact i64 %12, 72
  ret i64 %13
}

; Function Attrs: mustprogress nounwind
define linkonce_odr dso_local noundef ptr @_ZNSt6vectorIN4mold4Glob7ElementESaIS2_EE4dataEv(ptr noundef nonnull align 8 dereferenceable(24) %0) #4 comdat align 2 {
  %2 = alloca ptr, align 8
  store ptr %0, ptr %2, align 8, !tbaa !37
  %3 = load ptr, ptr %2, align 8
  %4 = getelementptr inbounds nuw %"struct.std::_Vector_base.2", ptr %3, i32 0, i32 0
  %5 = getelementptr inbounds nuw %"struct.std::_Vector_base<mold::Glob::Element, std::allocator<mold::Glob::Element>>::_Vector_impl_data", ptr %4, i32 0, i32 0
  %6 = load ptr, ptr %5, align 8, !tbaa !61
  %7 = call noundef ptr @_ZNKSt6vectorIN4mold4Glob7ElementESaIS2_EE11_M_data_ptrIS2_EEPT_S7_(ptr noundef nonnull align 8 dereferenceable(24) %3, ptr noundef %6) #3
  ret ptr %7
}

; Function Attrs: mustprogress nounwind
define linkonce_odr dso_local void @_ZNSt4spanIN4mold4Glob7ElementELm18446744073709551615EEC2ITkSt19contiguous_iteratorPS2_Qsr19__is_compatible_refIDTdeclsr3stdE7declvalIRTL0__EEEEE5valueEET_m(ptr noundef nonnull align 8 dereferenceable(16) %0, ptr noundef %1, i64 noundef %2) unnamed_addr #4 comdat align 2 {
  %4 = alloca ptr, align 8
  %5 = alloca ptr, align 8
  %6 = alloca i64, align 8
  store ptr %0, ptr %4, align 8, !tbaa !67
  store ptr %1, ptr %5, align 8, !tbaa !62
  store i64 %2, ptr %6, align 8, !tbaa !15
  %7 = load ptr, ptr %4, align 8
  %8 = getelementptr inbounds nuw %"class.std::span", ptr %7, i32 0, i32 0
  %9 = load ptr, ptr %5, align 8, !tbaa !62
  %10 = call noundef ptr @_ZSt10to_addressIN4mold4Glob7ElementEEPT_S4_(ptr noundef %9) #3
  store ptr %10, ptr %8, align 8, !tbaa !69
  %11 = getelementptr inbounds nuw %"class.std::span", ptr %7, i32 0, i32 1
  %12 = load i64, ptr %6, align 8, !tbaa !15
  call void @_ZNSt8__detail16__extent_storageILm18446744073709551615EEC2Em(ptr noundef nonnull align 8 dereferenceable(8) %11, i64 noundef %12) #3
  ret void
}

; Function Attrs: mustprogress nounwind
define linkonce_odr dso_local noundef i64 @_ZNKSt6ranges13__cust_access5_SizeclIRSt6vectorIN4mold4Glob7ElementESaIS6_EEQoooooo18is_bounded_array_vINSt16remove_referenceIT_E4typeEE13__member_sizeISB_E10__adl_sizeISB_E15__sentinel_sizeISB_EEEDaOSB_(ptr noundef nonnull align 1 dereferenceable(1) %0, ptr noundef nonnull align 8 dereferenceable(24) %1) #4 comdat align 2 {
  %3 = alloca ptr, align 8
  %4 = alloca ptr, align 8
  store ptr %0, ptr %3, align 8, !tbaa !136
  store ptr %1, ptr %4, align 8, !tbaa !37
  %5 = load ptr, ptr %4, align 8, !tbaa !37
  %6 = call noundef i64 @_ZNKSt6vectorIN4mold4Glob7ElementESaIS2_EE4sizeEv(ptr noundef nonnull align 8 dereferenceable(24) %5) #3
  ret i64 %6
}

; Function Attrs: mustprogress nounwind
define linkonce_odr dso_local noundef ptr @_ZNKSt6ranges13__cust_access5_DataclITkNS_8__detail22__maybe_borrowed_rangeERSt6vectorIN4mold4Glob7ElementESaIS7_EEQoo13__member_dataIT_E12__begin_dataISB_EEEDaOSB_(ptr noundef nonnull align 1 dereferenceable(1) %0, ptr noundef nonnull align 8 dereferenceable(24) %1) #4 comdat align 2 {
  %3 = alloca ptr, align 8
  %4 = alloca ptr, align 8
  store ptr %0, ptr %3, align 8, !tbaa !134
  store ptr %1, ptr %4, align 8, !tbaa !37
  %5 = load ptr, ptr %4, align 8, !tbaa !37
  %6 = call noundef ptr @_ZNSt6vectorIN4mold4Glob7ElementESaIS2_EE4dataEv(ptr noundef nonnull align 8 dereferenceable(24) %5) #3
  ret ptr %6
}

; Function Attrs: mustprogress nounwind
define linkonce_odr dso_local void @_ZNSt4spanIN4mold4Glob7ElementELm18446744073709551615EEC2IRSt6vectorIS2_SaIS2_EEQaaaaaaaaaaaantsr8__detailE9__is_spanINSt12remove_cvrefITL0__E4typeEEntsr8__detailE14__is_std_arrayISC_Ent10is_array_vISC_Esr6rangesE16contiguous_rangeISA_Esr6rangesE11sized_rangeISA_Eoosr6rangesE14borrowed_rangeISA_E10is_const_vIT_Esr19__is_compatible_refIDTdeclsr3stdE7declvalIRDTclsr6ranges13__cust_accessE7__beginclsr3stdE7declvalIRSA_EEEEEEEEE5valueEEOSD_(ptr noundef nonnull align 8 dereferenceable(16) %0, ptr noundef nonnull align 8 dereferenceable(24) %1) unnamed_addr #4 comdat align 2 {
  %3 = alloca ptr, align 8
  %4 = alloca ptr, align 8
  store ptr %0, ptr %3, align 8, !tbaa !67
  store ptr %1, ptr %4, align 8, !tbaa !37
  %5 = load ptr, ptr %3, align 8
  %6 = load ptr, ptr %4, align 8, !tbaa !37
  %7 = call noundef ptr @_ZNKSt6ranges13__cust_access5_DataclITkNS_8__detail22__maybe_borrowed_rangeERSt6vectorIN4mold4Glob7ElementESaIS7_EEQoo13__member_dataIT_E12__begin_dataISB_EEEDaOSB_(ptr noundef nonnull align 1 dereferenceable(1) @_ZNSt6ranges6__cust4dataE, ptr noundef nonnull align 8 dereferenceable(24) %6) #3
  %8 = load ptr, ptr %4, align 8, !tbaa !37
  %9 = call noundef i64 @_ZNKSt6ranges13__cust_access5_SizeclIRSt6vectorIN4mold4Glob7ElementESaIS6_EEQoooooo18is_bounded_array_vINSt16remove_referenceIT_E4typeEE13__member_sizeISB_E10__adl_sizeISB_E15__sentinel_sizeISB_EEEDaOSB_(ptr noundef nonnull align 1 dereferenceable(1) @_ZNSt6ranges6__cust4sizeE, ptr noundef nonnull align 8 dereferenceable(24) %8) #3
  call void @_ZNSt4spanIN4mold4Glob7ElementELm18446744073709551615EEC2ITkSt19contiguous_iteratorPS2_Qsr19__is_compatible_refIDTdeclsr3stdE7declvalIRTL0__EEEEE5valueEET_m(ptr noundef nonnull align 8 dereferenceable(16) %5, ptr noundef %7, i64 noundef %9) #3
  ret void
}

; Function Attrs: mustprogress nounwind
define dso_local noundef zeroext i1 @_ZN4mold4Glob5matchESt17basic_string_viewIcSt11char_traitsIcEE(ptr noundef nonnull align 8 dereferenceable(24) %0, i64 %1, ptr %2) #4 align 2 {
  %4 = alloca %"class.std::basic_string_view", align 8
  %5 = alloca ptr, align 8
  %6 = alloca %"class.std::basic_string_view", align 8
  %7 = alloca %"class.std::span", align 8
  %8 = getelementptr inbounds nuw { i64, ptr }, ptr %4, i32 0, i32 0
  store i64 %1, ptr %8, align 8
  %9 = getelementptr inbounds nuw { i64, ptr }, ptr %4, i32 0, i32 1
  store ptr %2, ptr %9, align 8
  store ptr %0, ptr %5, align 8, !tbaa !59
  %10 = load ptr, ptr %5, align 8
  call void @llvm.memcpy.p0.p0.i64(ptr align 8 %6, ptr align 8 %4, i64 16, i1 false), !tbaa.struct !14
  %11 = getelementptr inbounds nuw %"class.mold::Glob", ptr %10, i32 0, i32 0
  call void @_ZNSt4spanIN4mold4Glob7ElementELm18446744073709551615EEC2IRSt6vectorIS2_SaIS2_EEQaaaaaaaaaaaantsr8__detailE9__is_spanINSt12remove_cvrefITL0__E4typeEEntsr8__detailE14__is_std_arrayISC_Ent10is_array_vISC_Esr6rangesE16contiguous_rangeISA_Esr6rangesE11sized_rangeISA_Eoosr6rangesE14borrowed_rangeISA_E10is_const_vIT_Esr19__is_compatible_refIDTdeclsr3stdE7declvalIRDTclsr6ranges13__cust_accessE7__beginclsr3stdE7declvalIRSA_EEEEEEEEE5valueEEOSD_(ptr noundef nonnull align 8 dereferenceable(16) %7, ptr noundef nonnull align 8 dereferenceable(24) %11) #3
  %12 = getelementptr inbounds nuw { i64, ptr }, ptr %6, i32 0, i32 0
  %13 = load i64, ptr %12, align 8
  %14 = getelementptr inbounds nuw { i64, ptr }, ptr %6, i32 0, i32 1
  %15 = load ptr, ptr %14, align 8
  %16 = getelementptr inbounds nuw { ptr, i64 }, ptr %7, i32 0, i32 0
  %17 = load ptr, ptr %16, align 8
  %18 = getelementptr inbounds nuw { ptr, i64 }, ptr %7, i32 0, i32 1
  %19 = load i64, ptr %18, align 8
  %20 = call noundef zeroext i1 @_ZN4mold4Glob8do_matchESt17basic_string_viewIcSt11char_traitsIcEESt4spanINS0_7ElementELm18446744073709551615EE(i64 %13, ptr %15, ptr %17, i64 %19)
  ret i1 %20
}