; Function Attrs: mustprogress nounwind
define dso_local noundef zeroext i1 @_ZN4mold4Glob5matchESt17basic_string_viewIcSt11char_traitsIcEE(ptr noundef nonnull readonly align 8 captures(none) dereferenceable(24) %0, i64 %1, ptr %2) local_unnamed_addr #4 align 2 {
  %4 = load ptr, ptr %0, align 8, !tbaa !39
  %5 = getelementptr inbounds nuw i8, ptr %0, i64 8
  %6 = load ptr, ptr %5, align 8, !tbaa !14
  %7 = ptrtoint ptr %6 to i64
  %8 = ptrtoint ptr %4 to i64
  %9 = sub i64 %7, %8
  %10 = sdiv exact i64 %9, 72
  %11 = tail call noundef zeroext i1 @_ZN4mold4Glob8do_matchESt17basic_string_viewIcSt11char_traitsIcEESt4spanINS0_7ElementELm18446744073709551615EE(i64 %1, ptr %2, ptr %4, i64 %10)
  ret i1 %11
}